; Function Attrs: mustprogress nofree norecurse nosync nounwind willreturn memory(argmem: readwrite) uwtable
define noundef float @_ZN15b2DistanceJoint12SetMaxLengthEf(ptr nocapture noundef nonnull align 8 dereferenceable(260) %this, float noundef %maxLength) local_unnamed_addr #10 align 2 {
entry:
  %m_upperImpulse = getelementptr inbounds i8, ptr %this, i64 180
  store float 0.000000e+00, ptr %m_upperImpulse, align 4
  %m_minLength = getelementptr inbounds i8, ptr %this, i64 144
  %0 = load float, ptr %m_minLength, align 8
  %cmp.i = fcmp olt float %0, %maxLength
  %cond.i = select i1 %cmp.i, float %maxLength, float %0
  %m_maxLength = getelementptr inbounds i8, ptr %this, i64 148
  store float %cond.i, ptr %m_maxLength, align 4
  ret float %cond.i
}